ccopy_reg
_reconstructor
p0
(cipywidgets_static.interact
StaticInteract
p1
c__builtin__
object
p2
Ntp3
Rp4
(dp5
S'widgets'
p6
ccollections
OrderedDict
p7
((lp8
(lp9
S'color'
p10
ag0
(cipywidgets_static.widgets
RadioWidget
p11
g2
Ntp12
Rp13
(dp14
S'name'
p15
g10
sS'default'
p16
S'blue'
p17
sS'labels'
p18
(lp19
g17
aS'green'
p20
aS'red'
p21
asS'delimiter'
p22
S'      '
p23
sS'_values'
p24
(lp25
g17
ag20
ag21
asS'divargs'
p26
S''
p27
sbaa(lp28
S'amplitude'
p29
ag0
(cipywidgets_static.widgets
RangeWidget
p30
g2
Ntp31
Rp32
(dp33
g15
g29
sS'datarange'
p34
(F0.1
F1.0
F0.1
tp35
sg16
F0.1
sS'width'
p36
I350
sg26
g27
sS'show_range'
p37
I00
sbaatp38
Rp39
sS'function'
p40
c__main__
plot
p41
sb.